; Function Attrs: nounwind sspstrong uwtable
define internal range(i64 0, 21) i64 @ossl_bn_eq(i64 noundef %0, i64 noundef %1) #0 {
  %3 = tail call ptr @rb_check_typeddata(i64 noundef %0, ptr noundef nonnull @ossl_bn_type) #11
  %.not = icmp eq ptr %3, null
  br i1 %.not, label %4, label %6

4:                                                ; preds = %2
  %5 = load i64, ptr @rb_eRuntimeError, align 8, !tbaa !6
  tail call void (i64, ptr, ...) @ossl_raise(i64 noundef %5, ptr noundef nonnull @.str) #12
  unreachable

6:                                                ; preds = %2
  %7 = load i64, ptr @cBN, align 8, !tbaa !6
  %8 = tail call i64 @rb_obj_is_kind_of(i64 noundef %1, i64 noundef %7) #11
  %.not.i = icmp eq i64 %8, 0
  br i1 %.not.i, label %9, label %try_convert_to_bn.exit

9:                                                ; preds = %6
  %10 = and i64 %1, 1
  %.not.i.i = icmp eq i64 %10, 0
  br i1 %.not.i.i, label %11, label %rb_integer_type_p.exit.thread.i

11:                                               ; preds = %9
  %12 = icmp eq i64 %1, 0
  %13 = and i64 %1, 6
  %14 = icmp ne i64 %13, 0
  %15 = or i1 %12, %14
  br i1 %15, label %try_convert_to_bn.exit.thread, label %rb_integer_type_p.exit.i

rb_integer_type_p.exit.i:                         ; preds = %11
  %16 = inttoptr i64 %1 to ptr
  %17 = load i64, ptr %16, align 8, !tbaa !15
  %18 = and i64 %17, 31
  %19 = icmp eq i64 %18, 10
  br i1 %19, label %rb_integer_type_p.exit.thread.i, label %try_convert_to_bn.exit.thread

rb_integer_type_p.exit.thread.i:                  ; preds = %rb_integer_type_p.exit.i, %9
  %20 = load i64, ptr @cBN, align 8, !tbaa !6
  %21 = tail call i64 @rb_data_typed_object_wrap(i64 noundef %20, ptr noundef null, ptr noundef nonnull @ossl_bn_type) #11
  %22 = tail call fastcc ptr @integer_to_bnptr(i64 noundef %1, ptr noundef null)
  %23 = inttoptr i64 %21 to ptr
  %24 = getelementptr inbounds nuw i8, ptr %23, i64 32
  store ptr %22, ptr %24, align 8, !tbaa !10
  br label %try_convert_to_bn.exit

try_convert_to_bn.exit:                           ; preds = %6, %rb_integer_type_p.exit.thread.i
  %.08.i = phi i64 [ %1, %6 ], [ %21, %rb_integer_type_p.exit.thread.i ]
  %25 = icmp eq i64 %.08.i, 4
  br i1 %25, label %try_convert_to_bn.exit.thread, label %26

26:                                               ; preds = %try_convert_to_bn.exit
  %27 = tail call ptr @rb_check_typeddata(i64 noundef %.08.i, ptr noundef nonnull @ossl_bn_type) #11
  %.not10 = icmp eq ptr %27, null
  br i1 %.not10, label %28, label %30

28:                                               ; preds = %26
  %29 = load i64, ptr @rb_eRuntimeError, align 8, !tbaa !6
  tail call void (i64, ptr, ...) @ossl_raise(i64 noundef %29, ptr noundef nonnull @.str) #12
  unreachable

30:                                               ; preds = %26
  %31 = tail call i32 @BN_cmp(ptr noundef nonnull %3, ptr noundef nonnull %27) #11
  %.not11 = icmp eq i32 %31, 0
  %. = select i1 %.not11, i64 20, i64 0
  br label %try_convert_to_bn.exit.thread

try_convert_to_bn.exit.thread:                    ; preds = %11, %rb_integer_type_p.exit.i, %30, %try_convert_to_bn.exit
  %.0 = phi i64 [ 0, %try_convert_to_bn.exit ], [ %., %30 ], [ 0, %rb_integer_type_p.exit.i ], [ 0, %11 ]
  ret i64 %.0
}